	.file	"debug.c"
	.text
Ltext0:
	.file 0 "C:/work/c/chicken-sacrifice/test-foreign-dll" "src/debug.c"
	.def	_printf;	.scl	3;	.type	32;	.endef
_printf:
LFB8:
	.file 1 "C:/msys64/mingw32/i686-w64-mingw32/include/stdio.h"
	.loc 1 369 1
	.cfi_startproc
	pushl	%ebp
	.cfi_def_cfa_offset 8
	.cfi_offset 5, -8
	movl	%esp, %ebp
	.cfi_def_cfa_register 5
	pushl	%ebx
	subl	$36, %esp
	.cfi_offset 3, -12
	.loc 1 371 35
	leal	12(%ebp), %eax
	movl	%eax, -16(%ebp)
	.loc 1 372 14
	movl	-16(%ebp), %ebx
	movl	$1, (%esp)
	movl	__imp____acrt_iob_func, %eax
	call	*%eax
LVL0:
	movl	%ebx, 8(%esp)
	movl	8(%ebp), %edx
	movl	%edx, 4(%esp)
	movl	%eax, (%esp)
	call	___mingw_vfprintf
	movl	%eax, -12(%ebp)
	.loc 1 374 10
	movl	-12(%ebp), %eax
	.loc 1 375 1
	movl	-4(%ebp), %ebx
	leave
	.cfi_restore 5
	.cfi_restore 3
	.cfi_def_cfa 4, 4
	ret
	.cfi_endproc
LFE8:
	.section .rdata,"dr"
LC0:
	.ascii "AllocationProtect = 0x%lX\0"
LC1:
	.ascii "State = 0x%lX\12\0"
LC2:
	.ascii "State Flags = \0"
LC3:
	.ascii "MEM_COMMIT \0"
LC4:
	.ascii "MEM_FREE \0"
LC5:
	.ascii "MEM_RESERVE \0"
LC6:
	.ascii "\12\0"
LC7:
	.ascii "Protect = 0x%lX\12\0"
LC8:
	.ascii "Protect Flags = \0"
LC9:
	.ascii "PAGE_NOACCESS \0"
LC10:
	.ascii "PAGE_READONLY \0"
LC11:
	.ascii "PAGE_READWRITE \0"
LC12:
	.ascii "PAGE_WRITECOPY \0"
LC13:
	.ascii "PAGE_TARGETS_INVALID \0"
LC14:
	.ascii "PAGE_GUARD \0"
LC15:
	.ascii "Type = 0x%lX\12\0"
LC16:
	.ascii "Type Flags = \0"
LC17:
	.ascii "MEM_IMAGE \0"
LC18:
	.ascii "MEM_MAPPED \0"
LC19:
	.ascii "MEM_PRIVATE \0"
	.text
	.globl	_debug_print_mem_basic_flags
	.def	_debug_print_mem_basic_flags;	.scl	2;	.type	32;	.endef
_debug_print_mem_basic_flags:
LFB114:
	.file 2 "src/debug.c"
	.loc 2 4 1
	.cfi_startproc
	pushl	%ebp
	.cfi_def_cfa_offset 8
	.cfi_offset 5, -8
	movl	%esp, %ebp
	.cfi_def_cfa_register 5
	subl	$24, %esp
	.loc 2 5 5
	movl	8(%ebp), %eax
	movl	8(%eax), %eax
	movl	%eax, 4(%esp)
	movl	$LC0, (%esp)
	call	_printf
	.loc 2 6 5
	movl	8(%ebp), %eax
	movl	16(%eax), %eax
	movl	%eax, 4(%esp)
	movl	$LC1, (%esp)
	call	_printf
	.loc 2 7 5
	movl	$LC2, (%esp)
	call	_printf
	.loc 2 9 16
	movl	8(%ebp), %eax
	movl	16(%eax), %eax
	.loc 2 9 24
	andl	$4096, %eax
	.loc 2 9 8
	testl	%eax, %eax
	je	L4
	.loc 2 10 7
	movl	$LC3, (%esp)
	call	_printf
L4:
	.loc 2 11 16
	movl	8(%ebp), %eax
	movl	16(%eax), %eax
	.loc 2 11 24
	andl	$65536, %eax
	.loc 2 11 8
	testl	%eax, %eax
	je	L5
	.loc 2 12 7
	movl	$LC4, (%esp)
	call	_printf
L5:
	.loc 2 13 16
	movl	8(%ebp), %eax
	movl	16(%eax), %eax
	.loc 2 13 24
	andl	$8192, %eax
	.loc 2 13 8
	testl	%eax, %eax
	je	L6
	.loc 2 14 7
	movl	$LC5, (%esp)
	call	_printf
L6:
	.loc 2 15 5
	movl	$LC6, (%esp)
	call	_printf
	.loc 2 17 5
	movl	8(%ebp), %eax
	movl	20(%eax), %eax
	movl	%eax, 4(%esp)
	movl	$LC7, (%esp)
	call	_printf
	.loc 2 18 5
	movl	$LC8, (%esp)
	call	_printf
	.loc 2 19 16
	movl	8(%ebp), %eax
	movl	20(%eax), %eax
	.loc 2 19 26
	andl	$1, %eax
	.loc 2 19 8
	testl	%eax, %eax
	je	L7
	.loc 2 20 7
	movl	$LC9, (%esp)
	call	_printf
L7:
	.loc 2 21 16
	movl	8(%ebp), %eax
	movl	20(%eax), %eax
	.loc 2 21 26
	andl	$2, %eax
	.loc 2 21 8
	testl	%eax, %eax
	je	L8
	.loc 2 22 7
	movl	$LC10, (%esp)
	call	_printf
L8:
	.loc 2 23 16
	movl	8(%ebp), %eax
	movl	20(%eax), %eax
	.loc 2 23 26
	andl	$4, %eax
	.loc 2 23 8
	testl	%eax, %eax
	je	L9
	.loc 2 24 7
	movl	$LC11, (%esp)
	call	_printf
L9:
	.loc 2 25 16
	movl	8(%ebp), %eax
	movl	20(%eax), %eax
	.loc 2 25 26
	andl	$8, %eax
	.loc 2 25 8
	testl	%eax, %eax
	je	L10
	.loc 2 26 7
	movl	$LC12, (%esp)
	call	_printf
L10:
	.loc 2 27 16
	movl	8(%ebp), %eax
	movl	20(%eax), %eax
	.loc 2 27 26
	andl	$1073741824, %eax
	.loc 2 27 8
	testl	%eax, %eax
	je	L11
	.loc 2 28 7
	movl	$LC13, (%esp)
	call	_printf
L11:
	.loc 2 29 16
	movl	8(%ebp), %eax
	movl	20(%eax), %eax
	.loc 2 29 26
	andl	$256, %eax
	.loc 2 29 8
	testl	%eax, %eax
	je	L12
	.loc 2 30 7
	movl	$LC14, (%esp)
	call	_printf
L12:
	.loc 2 31 5
	movl	$LC6, (%esp)
	call	_printf
	.loc 2 33 5
	movl	8(%ebp), %eax
	movl	24(%eax), %eax
	movl	%eax, 4(%esp)
	movl	$LC15, (%esp)
	call	_printf
	.loc 2 34 5
	movl	$LC16, (%esp)
	call	_printf
	.loc 2 35 16
	movl	8(%ebp), %eax
	movl	24(%eax), %eax
	.loc 2 35 23
	andl	$16777216, %eax
	.loc 2 35 8
	testl	%eax, %eax
	je	L13
	.loc 2 36 7
	movl	$LC17, (%esp)
	call	_printf
L13:
	.loc 2 37 16
	movl	8(%ebp), %eax
	movl	24(%eax), %eax
	.loc 2 37 23
	andl	$262144, %eax
	.loc 2 37 8
	testl	%eax, %eax
	je	L14
	.loc 2 38 7
	movl	$LC18, (%esp)
	call	_printf
L14:
	.loc 2 39 16
	movl	8(%ebp), %eax
	movl	24(%eax), %eax
	.loc 2 39 23
	andl	$131072, %eax
	.loc 2 39 8
	testl	%eax, %eax
	je	L15
	.loc 2 40 7
	movl	$LC19, (%esp)
	call	_printf
L15:
	.loc 2 41 5
	movl	$LC6, (%esp)
	call	_printf
	.loc 2 42 1
	nop
	leave
	.cfi_restore 5
	.cfi_def_cfa 4, 4
	ret
	.cfi_endproc
LFE114:
	.section .rdata,"dr"
LC20:
	.ascii "src/debug.c\0"
LC21:
	.ascii "ERROR::%s::%d::%s::\0"
LC22:
	.ascii "Windows error: 0x%lX\0"
	.text
	.globl	_debug_print_last_win_error
	.def	_debug_print_last_win_error;	.scl	2;	.type	32;	.endef
_debug_print_last_win_error:
LFB115:
	.loc 2 45 1
	.cfi_startproc
	pushl	%ebp
	.cfi_def_cfa_offset 8
	.cfi_offset 5, -8
	movl	%esp, %ebp
	.cfi_def_cfa_register 5
	subl	$56, %esp
	.loc 2 47 14
	movl	__imp__GetLastError@0, %eax
	call	*%eax
LVL1:
	movl	%eax, -12(%ebp)
	.loc 2 49 3
	movl	_debug_level, %eax
	testl	%eax, %eax
	jle	L17
	.loc 2 49 3 is_stmt 0 discriminator 1
	movl	$___func__.0, 12(%esp)
	movl	$49, 8(%esp)
	movl	$LC20, 4(%esp)
	movl	$LC21, (%esp)
	call	_printf
	movl	__imp__GetLastError@0, %eax
	call	*%eax
LVL2:
	movl	%eax, 4(%esp)
	movl	$LC22, (%esp)
	call	_printf
	movl	$LC6, (%esp)
	call	_printf
L17:
	.loc 2 50 3 is_stmt 1
	movl	$0, 24(%esp)
	movl	$0, 20(%esp)
	leal	-16(%ebp), %eax
	movl	%eax, 16(%esp)
	movl	$1024, 12(%esp)
	movl	-12(%ebp), %eax
	movl	%eax, 8(%esp)
	movl	$0, 4(%esp)
	movl	$4864, (%esp)
	movl	__imp__FormatMessageA@28, %eax
	call	*%eax
LVL3:
	subl	$28, %esp
	.loc 2 59 3
	movl	-16(%ebp), %eax
	movl	%eax, (%esp)
	call	_printf
	.loc 2 60 1
	nop
	leave
	.cfi_restore 5
	.cfi_def_cfa 4, 4
	ret
	.cfi_endproc
LFE115:
	.section .rdata,"dr"
	.align 4
___func__.0:
	.ascii "debug_print_last_win_error\0"
	.text
Letext0:
	.file 3 "C:/msys64/mingw32/i686-w64-mingw32/include/vadefs.h"
	.file 4 "C:/msys64/mingw32/i686-w64-mingw32/include/minwindef.h"
	.file 5 "C:/msys64/mingw32/i686-w64-mingw32/include/basetsd.h"
	.file 6 "C:/msys64/mingw32/i686-w64-mingw32/include/winnt.h"
	.file 7 "inc/debug.h"
	.file 8 "C:/msys64/mingw32/i686-w64-mingw32/include/winbase.h"
	.file 9 "C:/msys64/mingw32/i686-w64-mingw32/include/errhandlingapi.h"
	.section .drectve
	.ascii " -export:\"debug_print_last_win_error\""
	.ascii " -export:\"debug_print_mem_basic_flags\""
