	.file	"dll-test.c"
	.text
Ltext0:
	.file 0 "C:/work/c/chicken-sacrifice/test-foreign-dll" "src/dll/dll-test.c"
	.def	_printf;	.scl	3;	.type	32;	.endef
_printf:
LFB93:
	.file 1 "C:/msys64/mingw32/i686-w64-mingw32/include/stdio.h"
	.loc 1 369 1
	.cfi_startproc
	pushl	%ebp
	.cfi_def_cfa_offset 8
	.cfi_offset 5, -8
	movl	%esp, %ebp
	.cfi_def_cfa_register 5
	pushl	%ebx
	subl	$36, %esp
	.cfi_offset 3, -12
	.loc 1 371 35
	leal	12(%ebp), %eax
	movl	%eax, -16(%ebp)
	.loc 1 372 14
	movl	-16(%ebp), %ebx
	movl	$1, (%esp)
	movl	__imp____acrt_iob_func, %eax
	call	*%eax
LVL0:
	movl	%ebx, 8(%esp)
	movl	8(%ebp), %edx
	movl	%edx, 4(%esp)
	movl	%eax, (%esp)
	call	___mingw_vfprintf
	movl	%eax, -12(%ebp)
	.loc 1 374 10
	movl	-12(%ebp), %eax
	.loc 1 375 1
	movl	-4(%ebp), %ebx
	leave
	.cfi_restore 5
	.cfi_restore 3
	.cfi_def_cfa 4, 4
	ret
	.cfi_endproc
LFE93:
	.globl	_get_pointer
	.def	_get_pointer;	.scl	2;	.type	32;	.endef
_get_pointer:
LFB243:
	.file 2 "src/dll/dll-test.c"
	.loc 2 9 1
	.cfi_startproc
	pushl	%ebp
	.cfi_def_cfa_offset 8
	.cfi_offset 5, -8
	movl	%esp, %ebp
	.cfi_def_cfa_register 5
	.loc 2 10 10
	movl	8(%ebp), %eax
	.loc 2 11 1
	popl	%ebp
	.cfi_restore 5
	.cfi_def_cfa 4, 4
	ret
	.cfi_endproc
LFE243:
	.globl	_get_char_from_pointer
	.def	_get_char_from_pointer;	.scl	2;	.type	32;	.endef
_get_char_from_pointer:
LFB244:
	.loc 2 14 1
	.cfi_startproc
	pushl	%ebp
	.cfi_def_cfa_offset 8
	.cfi_offset 5, -8
	movl	%esp, %ebp
	.cfi_def_cfa_register 5
	.loc 2 15 10
	movl	8(%ebp), %eax
	movzbl	(%eax), %eax
	.loc 2 16 1
	popl	%ebp
	.cfi_restore 5
	.cfi_def_cfa 4, 4
	ret
	.cfi_endproc
LFE244:
	.globl	_get_uint8_from_pointer
	.def	_get_uint8_from_pointer;	.scl	2;	.type	32;	.endef
_get_uint8_from_pointer:
LFB245:
	.loc 2 19 1
	.cfi_startproc
	pushl	%ebp
	.cfi_def_cfa_offset 8
	.cfi_offset 5, -8
	movl	%esp, %ebp
	.cfi_def_cfa_register 5
	.loc 2 20 10
	movl	8(%ebp), %eax
	movzbl	(%eax), %eax
	.loc 2 21 1
	popl	%ebp
	.cfi_restore 5
	.cfi_def_cfa 4, 4
	ret
	.cfi_endproc
LFE245:
	.globl	_get_uint16_from_pointer
	.def	_get_uint16_from_pointer;	.scl	2;	.type	32;	.endef
_get_uint16_from_pointer:
LFB246:
	.loc 2 24 1
	.cfi_startproc
	pushl	%ebp
	.cfi_def_cfa_offset 8
	.cfi_offset 5, -8
	movl	%esp, %ebp
	.cfi_def_cfa_register 5
	.loc 2 25 10
	movl	8(%ebp), %eax
	movzwl	(%eax), %eax
	.loc 2 26 1
	popl	%ebp
	.cfi_restore 5
	.cfi_def_cfa 4, 4
	ret
	.cfi_endproc
LFE246:
	.globl	_get_uint32_from_pointer
	.def	_get_uint32_from_pointer;	.scl	2;	.type	32;	.endef
_get_uint32_from_pointer:
LFB247:
	.loc 2 29 1
	.cfi_startproc
	pushl	%ebp
	.cfi_def_cfa_offset 8
	.cfi_offset 5, -8
	movl	%esp, %ebp
	.cfi_def_cfa_register 5
	.loc 2 30 10
	movl	8(%ebp), %eax
	movl	(%eax), %eax
	.loc 2 31 1
	popl	%ebp
	.cfi_restore 5
	.cfi_def_cfa 4, 4
	ret
	.cfi_endproc
LFE247:
	.section .rdata,"dr"
LC0:
	.ascii "%c\12\0"
	.text
	.globl	_print_char_from_pointer
	.def	_print_char_from_pointer;	.scl	2;	.type	32;	.endef
_print_char_from_pointer:
LFB248:
	.loc 2 34 1
	.cfi_startproc
	pushl	%ebp
	.cfi_def_cfa_offset 8
	.cfi_offset 5, -8
	movl	%esp, %ebp
	.cfi_def_cfa_register 5
	subl	$24, %esp
	.loc 2 35 18
	movl	8(%ebp), %eax
	movzbl	(%eax), %eax
	.loc 2 35 3
	movsbl	%al, %eax
	movl	%eax, 4(%esp)
	movl	$LC0, (%esp)
	call	_printf
	.loc 2 36 1
	nop
	leave
	.cfi_restore 5
	.cfi_def_cfa 4, 4
	ret
	.cfi_endproc
LFE248:
	.section .rdata,"dr"
LC1:
	.ascii "%hhu\12\0"
	.text
	.globl	_print_uint8_from_pointer
	.def	_print_uint8_from_pointer;	.scl	2;	.type	32;	.endef
_print_uint8_from_pointer:
LFB249:
	.loc 2 39 1
	.cfi_startproc
	pushl	%ebp
	.cfi_def_cfa_offset 8
	.cfi_offset 5, -8
	movl	%esp, %ebp
	.cfi_def_cfa_register 5
	subl	$24, %esp
	.loc 2 40 20
	movl	8(%ebp), %eax
	movzbl	(%eax), %eax
	.loc 2 40 3
	movzbl	%al, %eax
	movl	%eax, 4(%esp)
	movl	$LC1, (%esp)
	call	_printf
	.loc 2 41 1
	nop
	leave
	.cfi_restore 5
	.cfi_def_cfa 4, 4
	ret
	.cfi_endproc
LFE249:
	.section .rdata,"dr"
LC2:
	.ascii "%hu\12\0"
	.text
	.globl	_print_uint16_from_pointer
	.def	_print_uint16_from_pointer;	.scl	2;	.type	32;	.endef
_print_uint16_from_pointer:
LFB250:
	.loc 2 44 1
	.cfi_startproc
	pushl	%ebp
	.cfi_def_cfa_offset 8
	.cfi_offset 5, -8
	movl	%esp, %ebp
	.cfi_def_cfa_register 5
	subl	$24, %esp
	.loc 2 45 19
	movl	8(%ebp), %eax
	movzwl	(%eax), %eax
	.loc 2 45 3
	movzwl	%ax, %eax
	movl	%eax, 4(%esp)
	movl	$LC2, (%esp)
	call	_printf
	.loc 2 46 1
	nop
	leave
	.cfi_restore 5
	.cfi_def_cfa 4, 4
	ret
	.cfi_endproc
LFE250:
	.section .rdata,"dr"
LC3:
	.ascii "%u\12\0"
	.text
	.globl	_print_uint32_from_pointer
	.def	_print_uint32_from_pointer;	.scl	2;	.type	32;	.endef
_print_uint32_from_pointer:
LFB251:
	.loc 2 49 1
	.cfi_startproc
	pushl	%ebp
	.cfi_def_cfa_offset 8
	.cfi_offset 5, -8
	movl	%esp, %ebp
	.cfi_def_cfa_register 5
	subl	$24, %esp
	.loc 2 50 3
	movl	8(%ebp), %eax
	movl	(%eax), %eax
	movl	%eax, 4(%esp)
	movl	$LC3, (%esp)
	call	_printf
	.loc 2 51 1
	nop
	leave
	.cfi_restore 5
	.cfi_def_cfa 4, 4
	ret
	.cfi_endproc
LFE251:
	.section .rdata,"dr"
LC4:
	.ascii "         \0"
LC5:
	.ascii "%02X \0"
LC6:
	.ascii "\12\0"
LC7:
	.ascii "%08X \0"
	.text
	.globl	_print_hex_bytes
	.def	_print_hex_bytes;	.scl	2;	.type	32;	.endef
_print_hex_bytes:
LFB252:
	.loc 2 54 1
	.cfi_startproc
	pushl	%ebp
	.cfi_def_cfa_offset 8
	.cfi_offset 5, -8
	movl	%esp, %ebp
	.cfi_def_cfa_register 5
	subl	$40, %esp
	.loc 2 55 3
	movl	$LC4, (%esp)
	call	_printf
LBB2:
	.loc 2 56 15
	movl	$0, -12(%ebp)
	.loc 2 56 3
	jmp	L18
L19:
	.loc 2 57 5 discriminator 3
	movl	-12(%ebp), %eax
	movl	%eax, 4(%esp)
	movl	$LC5, (%esp)
	call	_printf
	.loc 2 56 33 discriminator 3
	addl	$1, -12(%ebp)
L18:
	.loc 2 56 24 discriminator 1
	cmpl	$15, -12(%ebp)
	jbe	L19
LBE2:
	.loc 2 58 3
	movl	$LC6, (%esp)
	call	_printf
LBB3:
	.loc 2 60 15
	movl	$0, -16(%ebp)
	.loc 2 60 3
	jmp	L20
L24:
	.loc 2 62 21
	movl	12(%ebp), %edx
	.loc 2 62 5
	movl	-16(%ebp), %eax
	addl	%edx, %eax
	movl	%eax, 4(%esp)
	movl	$LC7, (%esp)
	call	_printf
LBB4:
	.loc 2 63 17
	movl	$0, -20(%ebp)
	.loc 2 63 5
	jmp	L21
L23:
	.loc 2 64 33 discriminator 4
	movl	-16(%ebp), %edx
	movl	-20(%ebp), %eax
	addl	%eax, %edx
	.loc 2 64 30 discriminator 4
	movl	12(%ebp), %eax
	addl	%edx, %eax
	movzbl	(%eax), %eax
	.loc 2 64 7 discriminator 4
	movzbl	%al, %eax
	movl	%eax, 4(%esp)
	movl	$LC5, (%esp)
	call	_printf
	.loc 2 63 51 discriminator 4
	addl	$1, -20(%ebp)
L21:
	.loc 2 63 33 discriminator 1
	cmpl	$15, -20(%ebp)
	ja	L22
	.loc 2 63 37 discriminator 3
	movl	-20(%ebp), %edx
	movl	-16(%ebp), %eax
	addl	%edx, %eax
	.loc 2 63 33 discriminator 3
	cmpl	%eax, 8(%ebp)
	ja	L23
L22:
LBE4:
	.loc 2 65 5 discriminator 2
	movl	$LC6, (%esp)
	call	_printf
	.loc 2 60 36 discriminator 2
	addl	$16, -16(%ebp)
L20:
	.loc 2 60 24 discriminator 1
	movl	-16(%ebp), %eax
	cmpl	8(%ebp), %eax
	jb	L24
LBE3:
	.loc 2 67 1
	nop
	nop
	leave
	.cfi_restore 5
	.cfi_def_cfa 4, 4
	ret
	.cfi_endproc
LFE252:
	.section .rdata,"dr"
	.align 4
LC8:
	.ascii "C:\\work\\c\\chicken-sacrifice\\test-foreign-dll\\chicken-server.scm\0"
LC9:
	.ascii "r\0"
LC10:
	.ascii "Fail to open %s\12\0"
LC11:
	.ascii "%s\0"
LC12:
	.ascii "%s\12\0"
LC13:
	.ascii "close file\12\0"
	.text
	.globl	_launch_chicken@4
	.def	_launch_chicken@4;	.scl	2;	.type	32;	.endef
_launch_chicken@4:
LFB253:
	.loc 2 71 1
	.cfi_startproc
	pushl	%ebp
	.cfi_def_cfa_offset 8
	.cfi_offset 5, -8
	movl	%esp, %ebp
	.cfi_def_cfa_register 5
	pushl	%edi
	subl	$548, %esp
	.cfi_offset 7, -12
	.loc 2 72 15
	movl	$LC8, -12(%ebp)
	.loc 2 73 8
	movl	$0, -276(%ebp)
	leal	-272(%ebp), %edx
	movl	$0, %eax
	movl	$63, %ecx
	movl	%edx, %edi
	rep stosl
	.loc 2 74 8
	movl	$0, -532(%ebp)
	leal	-528(%ebp), %edx
	movl	$0, %eax
	movl	$63, %ecx
	movl	%edx, %edi
	rep stosl
	.loc 2 78 26
	movl	$LC9, 4(%esp)
	movl	-12(%ebp), %eax
	movl	%eax, (%esp)
	call	_fopen
	movl	%eax, -16(%ebp)
	.loc 2 79 6
	cmpl	$0, -16(%ebp)
	jne	L26
	.loc 2 81 5
	movl	-12(%ebp), %eax
	movl	%eax, 4(%esp)
	movl	$LC10, (%esp)
	call	_printf
	.loc 2 82 15
	call	_getchar
	.loc 2 82 13
	movb	%al, -532(%ebp)
	.loc 2 83 5
	movl	$1, (%esp)
	call	_exit
L26:
	.loc 2 87 3
	movl	$_C_default_5fstub_toplevel, (%esp)
	call	_CHICKEN_run
	.loc 2 90 9
	jmp	L27
L31:
	.loc 2 93 10
	movzbl	-532(%ebp), %eax
	movzbl	%al, %eax
	negl	%eax
	.loc 2 93 8
	testl	%eax, %eax
	je	L27
	.loc 2 93 37 discriminator 2
	leal	-532(%ebp), %eax
	movl	%eax, 4(%esp)
	movl	$LC6, (%esp)
	call	_strcmp
	.loc 2 93 33 discriminator 2
	testl	%eax, %eax
	jne	L29
	.loc 2 94 7 discriminator 3
	jmp	L27
L29:
	.loc 2 95 5
	leal	-532(%ebp), %eax
	movl	%eax, 4(%esp)
	movl	$LC11, (%esp)
	call	_printf
	.loc 2 97 14
	movl	$255, 8(%esp)
	leal	-276(%ebp), %eax
	movl	%eax, 4(%esp)
	leal	-532(%ebp), %eax
	movl	%eax, (%esp)
	call	_CHICKEN_eval_string_to_string
	movl	%eax, -20(%ebp)
	.loc 2 98 8
	cmpl	$0, -20(%ebp)
	jne	L30
	.loc 2 100 7
	movl	$255, 4(%esp)
	leal	-276(%ebp), %eax
	movl	%eax, (%esp)
	call	_CHICKEN_get_error_message
	.loc 2 101 7
	leal	-276(%ebp), %eax
	movl	%eax, 4(%esp)
	movl	$LC12, (%esp)
	call	_printf
	jmp	L27
L30:
	.loc 2 105 7
	leal	-276(%ebp), %eax
	movl	%eax, 4(%esp)
	movl	$LC12, (%esp)
	call	_printf
L27:
	.loc 2 90 10
	movl	-16(%ebp), %eax
	movl	%eax, 8(%esp)
	movl	$256, 4(%esp)
	leal	-532(%ebp), %eax
	movl	%eax, (%esp)
	call	_fgets
	.loc 2 90 58
	testl	%eax, %eax
	jne	L31
	.loc 2 109 3
	movl	$LC13, (%esp)
	call	_printf
	.loc 2 110 3
	movl	-16(%ebp), %eax
	movl	%eax, (%esp)
	call	_fclose
	.loc 2 112 10
	movl	$0, %eax
	.loc 2 113 1
	movl	-4(%ebp), %edi
	leave
	.cfi_restore 5
	.cfi_restore 7
	.cfi_def_cfa 4, 4
	ret	$4
	.cfi_endproc
LFE253:
	.globl	_DllMain@12
	.def	_DllMain@12;	.scl	2;	.type	32;	.endef
_DllMain@12:
LFB254:
	.loc 2 117 1
	.cfi_startproc
	pushl	%ebp
	.cfi_def_cfa_offset 8
	.cfi_offset 5, -8
	movl	%esp, %ebp
	.cfi_def_cfa_register 5
	.loc 2 118 3
	cmpl	$3, 12(%ebp)
	je	L40
	cmpl	$3, 12(%ebp)
	ja	L41
	cmpl	$2, 12(%ebp)
	je	L42
	cmpl	$2, 12(%ebp)
	ja	L41
	cmpl	$0, 12(%ebp)
	je	L43
	cmpl	$1, 12(%ebp)
	.loc 2 129 7
	jmp	L41
L40:
	.loc 2 127 7
	nop
	jmp	L38
L41:
	.loc 2 129 7
	nop
	jmp	L38
L42:
	.loc 2 125 7
	nop
	jmp	L38
L43:
	.loc 2 123 7
	nop
L38:
	.loc 2 132 10
	movl	$1, %eax
	.loc 2 133 1
	popl	%ebp
	.cfi_restore 5
	.cfi_def_cfa 4, 4
	ret	$12
	.cfi_endproc
LFE254:
Letext0:
	.file 3 "C:/msys64/mingw32/i686-w64-mingw32/include/vadefs.h"
	.file 4 "C:/msys64/mingw32/i686-w64-mingw32/include/corecrt.h"
	.file 5 "C:/msys64/mingw32/i686-w64-mingw32/include/minwindef.h"
	.file 6 "C:/msys64/mingw32/i686-w64-mingw32/include/stdint.h"
	.file 7 "C:/msys64/mingw32/include/chicken/chicken.h"
	.file 8 "C:/msys64/mingw32/i686-w64-mingw32/include/string.h"
	.file 9 "C:/msys64/mingw32/i686-w64-mingw32/include/stdlib.h"
	.section .drectve
	.ascii " -export:\"DllMain@12\""
	.ascii " -export:\"launch_chicken@4\""
	.ascii " -export:\"print_hex_bytes\""
	.ascii " -export:\"print_uint32_from_pointer\""
	.ascii " -export:\"print_uint16_from_pointer\""
	.ascii " -export:\"print_uint8_from_pointer\""
	.ascii " -export:\"print_char_from_pointer\""
	.ascii " -export:\"get_uint32_from_pointer\""
	.ascii " -export:\"get_uint16_from_pointer\""
	.ascii " -export:\"get_uint8_from_pointer\""
	.ascii " -export:\"get_char_from_pointer\""
	.ascii " -export:\"get_pointer\""
