	.file	"main.c"
	.text
Ltext0:
	.file 0 "C:/work/c/chicken-sacrifice/test-foreign-dll" "src/injector/main.c"
	.def	_printf;	.scl	3;	.type	32;	.endef
_printf:
LFB8:
	.file 1 "C:/msys64/mingw32/i686-w64-mingw32/include/stdio.h"
	.loc 1 369 1
	.cfi_startproc
	pushl	%ebp
	.cfi_def_cfa_offset 8
	.cfi_offset 5, -8
	movl	%esp, %ebp
	.cfi_def_cfa_register 5
	pushl	%ebx
	subl	$36, %esp
	.cfi_offset 3, -12
	.loc 1 371 35
	leal	12(%ebp), %eax
	movl	%eax, -16(%ebp)
	.loc 1 372 14
	movl	-16(%ebp), %ebx
	movl	$1, (%esp)
	movl	__imp____acrt_iob_func, %eax
	call	*%eax
LVL0:
	movl	%ebx, 8(%esp)
	movl	8(%ebp), %edx
	movl	%edx, 4(%esp)
	movl	%eax, (%esp)
	call	___mingw_vfprintf
	movl	%eax, -12(%ebp)
	.loc 1 374 10
	movl	-12(%ebp), %eax
	.loc 1 375 1
	movl	-4(%ebp), %ebx
	leave
	.cfi_restore 5
	.cfi_restore 3
	.cfi_def_cfa 4, 4
	ret
	.cfi_endproc
LFE8:
	.globl	_debug_level
	.data
	.align 4
_debug_level:
	.long	2
	.def	___main;	.scl	2;	.type	32;	.endef
	.section .rdata,"dr"
	.align 4
LC0:
	.ascii "C:\\work\\c\\chicken-sacrifice\\test-foreign-dll\\dll-test.dll\0"
LC1:
	.ascii "launch_chicken@4\0"
LC2:
	.ascii "Darkstone.exe\0"
LC3:
	.ascii "src/injector/main.c\0"
LC4:
	.ascii "ERROR::%s::%d::%s::\0"
	.align 4
LC5:
	.ascii "Failed to get process info with error %d\0"
LC6:
	.ascii "\12\0"
	.align 4
LC7:
	.ascii "DLL inject failed with null handle\12\0"
	.align 4
LC8:
	.ascii "Fail to find function in remote process \"%s\"\12\0"
LC9:
	.ascii "VERBOSE::%s::%d::%s::\0"
	.align 4
LC10:
	.ascii "Found remote address of \"%s\" at 0x%08X\0"
	.text
	.globl	_main
	.def	_main;	.scl	2;	.type	32;	.endef
_main:
LFB114:
	.file 2 "src/injector/main.c"
	.loc 2 13 1
	.cfi_startproc
	leal	4(%esp), %ecx
	.cfi_def_cfa 1, 0
	andl	$-16, %esp
	pushl	-4(%ecx)
	pushl	%ebp
	movl	%esp, %ebp
	.cfi_escape 0x10,0x5,0x2,0x75,0
	pushl	%ecx
	.cfi_escape 0xf,0x3,0x75,0x7c,0x6
	subl	$68, %esp
	.loc 2 13 1
	call	___main
	.loc 2 15 9
	movl	$LC0, -16(%ebp)
	.loc 2 16 9
	movl	$LC1, -20(%ebp)
	.loc 2 17 7
	movl	$0, -12(%ebp)
	.loc 2 18 16
	movl	$0, -40(%ebp)
	.loc 2 22 15
	movl	$LC2, -24(%ebp)
	.loc 2 25 13
	movl	-24(%ebp), %eax
	movl	%eax, 4(%esp)
	leal	-40(%ebp), %eax
	movl	%eax, (%esp)
	call	_proc_info_init
	movl	%eax, -28(%ebp)
	.loc 2 25 6
	cmpl	$0, -28(%ebp)
	je	L4
	.loc 2 27 5
	movl	_debug_level, %eax
	testl	%eax, %eax
	jle	L5
	.loc 2 27 5 is_stmt 0 discriminator 1
	movl	$___func__.0, 12(%esp)
	movl	$27, 8(%esp)
	movl	$LC3, 4(%esp)
	movl	$LC4, (%esp)
	call	_printf
	movl	-28(%ebp), %eax
	movl	%eax, 4(%esp)
	movl	$LC5, (%esp)
	call	_printf
	movl	$LC6, (%esp)
	call	_printf
L5:
	.loc 2 28 12 is_stmt 1
	movl	-28(%ebp), %eax
	jmp	L14
L4:
	.loc 2 32 15
	movl	-40(%ebp), %eax
	movl	-16(%ebp), %edx
	movl	%edx, 4(%esp)
	movl	%eax, (%esp)
	call	_proc_info_inject_dll
	movl	%eax, -32(%ebp)
	.loc 2 32 6
	cmpl	$0, -32(%ebp)
	jne	L7
	.loc 2 34 5
	movl	_debug_level, %eax
	testl	%eax, %eax
	jle	L8
	.loc 2 34 5 is_stmt 0 discriminator 1
	movl	$___func__.0, 12(%esp)
	movl	$34, 8(%esp)
	movl	$LC3, 4(%esp)
	movl	$LC4, (%esp)
	call	_printf
	movl	$LC7, (%esp)
	call	_printf
	movl	$LC6, (%esp)
	call	_printf
L8:
	.loc 2 35 12 is_stmt 1
	movl	$-1, -12(%ebp)
	.loc 2 36 5
	jmp	L9
L7:
	.loc 2 40 23
	movl	-40(%ebp), %eax
	movl	-20(%ebp), %edx
	movl	%edx, 8(%esp)
	movl	-32(%ebp), %edx
	movl	%edx, 4(%esp)
	movl	%eax, (%esp)
	call	_proc_info_get_remote_function_addr
	movl	%eax, -36(%ebp)
	.loc 2 40 6
	cmpl	$0, -36(%ebp)
	jne	L10
	.loc 2 42 5
	movl	_debug_level, %eax
	testl	%eax, %eax
	jle	L15
	.loc 2 42 5 is_stmt 0 discriminator 1
	movl	$___func__.0, 12(%esp)
	movl	$42, 8(%esp)
	movl	$LC3, 4(%esp)
	movl	$LC4, (%esp)
	call	_printf
	movl	-20(%ebp), %eax
	movl	%eax, 4(%esp)
	movl	$LC8, (%esp)
	call	_printf
	movl	$LC6, (%esp)
	call	_printf
	.loc 2 43 5 is_stmt 1 discriminator 1
	jmp	L15
L10:
	.loc 2 45 3
	movl	_debug_level, %eax
	testl	%eax, %eax
	jle	L12
	.loc 2 45 3 is_stmt 0 discriminator 1
	movl	$___func__.0, 12(%esp)
	movl	$45, 8(%esp)
	movl	$LC3, 4(%esp)
	movl	$LC9, (%esp)
	call	_printf
	movl	-36(%ebp), %eax
	movl	%eax, 8(%esp)
	movl	-20(%ebp), %eax
	movl	%eax, 4(%esp)
	movl	$LC10, (%esp)
	call	_printf
	movl	$LC6, (%esp)
	call	_printf
L12:
	.loc 2 48 3 is_stmt 1
	movl	-36(%ebp), %edx
	.loc 2 48 34
	movl	-40(%ebp), %eax
	.loc 2 48 3
	movl	4(%eax), %eax
	movl	$0, 24(%esp)
	movl	$0, 20(%esp)
	movl	-32(%ebp), %ecx
	movl	%ecx, 16(%esp)
	movl	%edx, 12(%esp)
	movl	$0, 8(%esp)
	movl	$0, 4(%esp)
	movl	%eax, (%esp)
	movl	__imp__CreateRemoteThread@28, %eax
	call	*%eax
LVL1:
	subl	$28, %esp
	.loc 2 49 3
	movl	$2, (%esp)
	movl	__imp__Sleep@4, %eax
	call	*%eax
LVL2:
	subl	$4, %esp
	jmp	L9
L15:
	.loc 2 43 5
	nop
L9:
	.loc 2 53 7
	movl	-40(%ebp), %eax
	.loc 2 53 6
	testl	%eax, %eax
	je	L13
	.loc 2 54 5
	leal	-40(%ebp), %eax
	movl	%eax, (%esp)
	call	_proc_info_destroy
L13:
	.loc 2 56 10
	movl	-12(%ebp), %eax
L14:
	.loc 2 57 1 discriminator 1
	movl	-4(%ebp), %ecx
	.cfi_def_cfa 1, 0
	leave
	.cfi_restore 5
	leal	-4(%ecx), %esp
	.cfi_def_cfa 4, 4
	ret
	.cfi_endproc
LFE114:
	.section .rdata,"dr"
	.align 4
___func__.0:
	.ascii "main\0"
	.text
Letext0:
	.file 3 "C:/msys64/mingw32/i686-w64-mingw32/include/vadefs.h"
	.file 4 "C:/msys64/mingw32/i686-w64-mingw32/include/stdint.h"
	.file 5 "C:/msys64/mingw32/i686-w64-mingw32/include/minwindef.h"
	.file 6 "C:/msys64/mingw32/i686-w64-mingw32/include/basetsd.h"
	.file 7 "C:/msys64/mingw32/i686-w64-mingw32/include/winnt.h"
	.file 8 "C:/msys64/mingw32/i686-w64-mingw32/include/windef.h"
	.file 9 "C:/msys64/mingw32/i686-w64-mingw32/include/minwinbase.h"
	.file 10 "C:/msys64/mingw32/i686-w64-mingw32/include/combaseapi.h"
	.file 11 "C:/msys64/mingw32/i686-w64-mingw32/include/wtypes.h"
	.file 12 "inc/injector/process_info.h"
	.file 13 "C:/msys64/mingw32/i686-w64-mingw32/include/synchapi.h"
	.file 14 "inc/debug.h"
	.file 15 "C:/msys64/mingw32/i686-w64-mingw32/include/processthreadsapi.h"