	.file	"test_main.c"
	.text
Ltext0:
	.file 0 "C:/work/c/chicken-sacrifice/test-foreign-dll" "src/test/test_main.c"
	.def	_printf;	.scl	3;	.type	32;	.endef
_printf:
LFB8:
	.file 1 "C:/msys64/mingw32/i686-w64-mingw32/include/stdio.h"
	.loc 1 369 1
	.cfi_startproc
	pushl	%ebp
	.cfi_def_cfa_offset 8
	.cfi_offset 5, -8
	movl	%esp, %ebp
	.cfi_def_cfa_register 5
	pushl	%ebx
	subl	$36, %esp
	.cfi_offset 3, -12
	.loc 1 371 35
	leal	12(%ebp), %eax
	movl	%eax, -16(%ebp)
	.loc 1 372 14
	movl	-16(%ebp), %ebx
	movl	$1, (%esp)
	movl	__imp____acrt_iob_func, %eax
	call	*%eax
LVL0:
	movl	%ebx, 8(%esp)
	movl	8(%ebp), %edx
	movl	%edx, 4(%esp)
	movl	%eax, (%esp)
	call	___mingw_vfprintf
	movl	%eax, -12(%ebp)
	.loc 1 374 10
	movl	-12(%ebp), %eax
	.loc 1 375 1
	movl	-4(%ebp), %ebx
	leave
	.cfi_restore 5
	.cfi_restore 3
	.cfi_def_cfa 4, 4
	ret
	.cfi_endproc
LFE8:
	.globl	_tests_run
	.bss
	.align 4
_tests_run:
	.space 4
	.globl	_debug_level
	.data
	.align 4
_debug_level:
	.long	1
	.section .rdata,"dr"
	.align 4
LC0:
	.ascii "Unit Test Error: memscan_find_next fails to find search data\0"
	.text
	.globl	_test_memscan_find_next
	.def	_test_memscan_find_next;	.scl	2;	.type	32;	.endef
_test_memscan_find_next:
LFB114:
	.file 2 "src/test/test_main.c"
	.loc 2 15 1
	.cfi_startproc
	pushl	%ebp
	.cfi_def_cfa_offset 8
	.cfi_offset 5, -8
	movl	%esp, %ebp
	.cfi_def_cfa_register 5
	subl	$56, %esp
	.loc 2 16 8
	movl	$2003133285, -25(%ebp)
	movl	$2020762218, -21(%ebp)
	movl	$1818322544, -17(%ebp)
	movb	$0, -13(%ebp)
	.loc 2 17 13
	movl	$1, -12(%ebp)
	.loc 2 20 9
	jmp	L4
L6:
	.loc 2 22 14
	movl	$12, 8(%esp)
	leal	-25(%ebp), %eax
	movl	%eax, 4(%esp)
	movl	$0, (%esp)
	call	_memscan_find_next
	movl	%eax, -12(%ebp)
L4:
	.loc 2 20 43
	leal	-25(%ebp), %eax
	cmpl	%eax, -12(%ebp)
	je	L5
	.loc 2 20 43 is_stmt 0 discriminator 1
	cmpl	$0, -12(%ebp)
	jne	L6
L5:
	.loc 2 25 3 is_stmt 1
	leal	-25(%ebp), %eax
	cmpl	%eax, -12(%ebp)
	je	L7
	.loc 2 25 3 is_stmt 0 discriminator 1
	movl	$LC0, %eax
	jmp	L9
L7:
	.loc 2 25 3 discriminator 2
	movl	_tests_run, %eax
	addl	$1, %eax
	movl	%eax, _tests_run
	.loc 2 27 10 is_stmt 1 discriminator 2
	movl	$0, %eax
L9:
	.loc 2 28 1 discriminator 1
	leave
	.cfi_restore 5
	.cfi_def_cfa 4, 4
	ret
	.cfi_endproc
LFE114:
	.globl	_all_tests
	.def	_all_tests;	.scl	2;	.type	32;	.endef
_all_tests:
LFB115:
	.loc 2 31 1
	.cfi_startproc
	pushl	%ebp
	.cfi_def_cfa_offset 8
	.cfi_offset 5, -8
	movl	%esp, %ebp
	.cfi_def_cfa_register 5
	subl	$24, %esp
	.loc 2 34 14
	call	_test_memscan_find_next
	movl	%eax, -12(%ebp)
	.loc 2 34 6
	cmpl	$0, -12(%ebp)
	je	L11
	.loc 2 35 12
	movl	-12(%ebp), %eax
	jmp	L12
L11:
	.loc 2 37 10
	movl	$0, %eax
L12:
	.loc 2 38 1
	leave
	.cfi_restore 5
	.cfi_def_cfa 4, 4
	ret
	.cfi_endproc
LFE115:
	.def	___main;	.scl	2;	.type	32;	.endef
	.section .rdata,"dr"
LC1:
	.ascii "\12\0"
	.align 4
LC2:
	.ascii "********************************************************************************************************************************************************\12\0"
LC3:
	.ascii "%s\12\0"
LC4:
	.ascii "ALL TESTS PASSED\12\0"
LC5:
	.ascii "Tests run: %d\12\0"
	.text
	.globl	_main
	.def	_main;	.scl	2;	.type	32;	.endef
_main:
LFB116:
	.loc 2 41 1
	.cfi_startproc
	pushl	%ebp
	.cfi_def_cfa_offset 8
	.cfi_offset 5, -8
	movl	%esp, %ebp
	.cfi_def_cfa_register 5
	andl	$-16, %esp
	subl	$32, %esp
	.loc 2 41 1
	call	___main
	.loc 2 45 15
	movl	$0, _debug_level
	.loc 2 47 12
	call	_all_tests
	movl	%eax, 28(%esp)
	.loc 2 48 6
	cmpl	$0, 28(%esp)
	je	L14
	.loc 2 50 5
	movl	$LC1, (%esp)
	call	_printf
	.loc 2 51 5
	movl	$LC2, (%esp)
	call	_printf
	.loc 2 52 5
	movl	28(%esp), %eax
	movl	%eax, 4(%esp)
	movl	$LC3, (%esp)
	call	_printf
	.loc 2 53 5
	movl	$LC2, (%esp)
	call	_printf
	.loc 2 54 5
	movl	$LC1, (%esp)
	call	_printf
	jmp	L15
L14:
	.loc 2 58 5
	movl	$LC1, (%esp)
	call	_printf
	.loc 2 59 5
	movl	$LC2, (%esp)
	call	_printf
	.loc 2 60 5
	movl	$LC4, (%esp)
	call	_printf
	.loc 2 61 5
	movl	$LC2, (%esp)
	call	_printf
	.loc 2 62 5
	movl	$LC1, (%esp)
	call	_printf
L15:
	.loc 2 65 3
	movl	_tests_run, %eax
	movl	%eax, 4(%esp)
	movl	$LC5, (%esp)
	call	_printf
	.loc 2 66 17
	cmpl	$0, 28(%esp)
	setne	%al
	movzbl	%al, %eax
	.loc 2 67 1
	leave
	.cfi_restore 5
	.cfi_def_cfa 4, 4
	ret
	.cfi_endproc
LFE116:
Letext0:
	.file 3 "C:/msys64/mingw32/i686-w64-mingw32/include/vadefs.h"
	.file 4 "C:/msys64/mingw32/i686-w64-mingw32/include/corecrt.h"
	.file 5 "C:/msys64/mingw32/i686-w64-mingw32/include/stdint.h"
	.file 6 "C:/msys64/mingw32/i686-w64-mingw32/include/combaseapi.h"
	.file 7 "C:/msys64/mingw32/i686-w64-mingw32/include/wtypes.h"
	.file 8 "inc/debug.h"
	.file 9 "inc/test/minunit.h"
	.file 10 "inc/dll/memscan.h"